target datalayout = "e-m:e-p270:32:32-p271:32:32-p272:64:64-i64:64-i128:128-f80:128-n8:16:32:64-S128"
target triple = "x86_64-pc-linux-gnu"

%struct.RString = type { %struct.RBasic, i64, %union.anon }
%struct.RBasic = type { i64, i64 }
%union.anon = type { %struct.anon }
%struct.anon = type { ptr, %union.anon.0 }
%union.anon.0 = type { i64 }

@rb_eArgError = external global i64, align 8
@rb_eIndexError = external global i64, align 8
@.str.2 = private unnamed_addr constant [24 x i8] c"index %ld out of string\00", align 1
@.str.18 = private unnamed_addr constant [39 x i8] c"negative string size (or size too big)\00", align 1

; Function Attrs: nounwind sspstrong uwtable
define dso_local i64 @rb_str_cat(i64 noundef %0, ptr noundef %1, i64 noundef %2) #0 {
  %4 = alloca i64, align 8
  %5 = alloca i64, align 8
  %6 = alloca ptr, align 8
  %7 = alloca i64, align 8
  store i64 %0, ptr %5, align 8, !tbaa !7
  store ptr %1, ptr %6, align 8, !tbaa !24
  store i64 %2, ptr %7, align 8, !tbaa !7
  %8 = load i64, ptr %7, align 8, !tbaa !7
  %9 = icmp eq i64 %8, 0
  br i1 %9, label %10, label %12

10:                                               ; preds = %3
  %11 = load i64, ptr %5, align 8, !tbaa !7
  store i64 %11, ptr %4, align 8
  br label %22

12:                                               ; preds = %3
  %13 = load i64, ptr %7, align 8, !tbaa !7
  %14 = icmp slt i64 %13, 0
  br i1 %14, label %15, label %17

15:                                               ; preds = %12
  %16 = load i64, ptr @rb_eArgError, align 8, !tbaa !7
  call void (i64, ptr, ...) @rb_raise(i64 noundef %16, ptr noundef @.str.18) #33
  unreachable

17:                                               ; preds = %12
  %18 = load i64, ptr %5, align 8, !tbaa !7
  %19 = load ptr, ptr %6, align 8, !tbaa !24
  %20 = load i64, ptr %7, align 8, !tbaa !7
  %21 = call i64 @str_buf_cat4(i64 noundef %18, ptr noundef %19, i64 noundef %20, i1 noundef zeroext false)
  store i64 %21, ptr %4, align 8
  br label %22

22:                                               ; preds = %17, %10
  %23 = load i64, ptr %4, align 8
  ret i64 %23
}

; Function Attrs: inlinehint nounwind sspstrong willreturn memory(read) uwtable
define internal i64 @RSTRING_LEN(i64 noundef %0) #1 {
  %2 = alloca i64, align 8
  store i64 %0, ptr %2, align 8, !tbaa !7
  %3 = load i64, ptr %2, align 8, !tbaa !7
  %4 = inttoptr i64 %3 to ptr
  %5 = getelementptr inbounds nuw %struct.RString, ptr %4, i32 0, i32 1
  %6 = load i64, ptr %5, align 8, !tbaa !11
  ret i64 %6
}

; Function Attrs: nounwind sspstrong uwtable
define hidden i64 @rb_str_cat_conv_enc_opts(i64 noundef %0, i64 noundef %1, ptr noundef %2, i64 noundef %3, ptr noundef %4, i32 noundef %5, i64 noundef %6) #0 {
  %8 = alloca i64, align 8
  %9 = alloca i64, align 8
  %10 = alloca i64, align 8
  %11 = alloca ptr, align 8
  %12 = alloca i64, align 8
  %13 = alloca ptr, align 8
  %14 = alloca i32, align 4
  %15 = alloca i64, align 8
  %16 = alloca i64, align 8
  %17 = alloca i32, align 4
  store i64 %0, ptr %9, align 8, !tbaa !7
  store i64 %1, ptr %10, align 8, !tbaa !7
  store ptr %2, ptr %11, align 8, !tbaa !24
  store i64 %3, ptr %12, align 8, !tbaa !7
  store ptr %4, ptr %13, align 8, !tbaa !15
  store i32 %5, ptr %14, align 4, !tbaa !22
  store i64 %6, ptr %15, align 8, !tbaa !7
  call void @llvm.lifetime.start.p0(i64 8, ptr %16) #29
  %18 = load i64, ptr %9, align 8, !tbaa !7
  %19 = call i64 @RSTRING_LEN(i64 noundef %18) #28
  store i64 %19, ptr %16, align 8, !tbaa !7
  %20 = load i64, ptr %10, align 8, !tbaa !7
  %21 = load i64, ptr %16, align 8, !tbaa !7
  %22 = sub i64 0, %21
  %23 = icmp slt i64 %20, %22
  br i1 %23, label %28, label %24

24:                                               ; preds = %7
  %25 = load i64, ptr %16, align 8, !tbaa !7
  %26 = load i64, ptr %10, align 8, !tbaa !7
  %27 = icmp slt i64 %25, %26
  br i1 %27, label %28, label %31

28:                                               ; preds = %24, %7
  %29 = load i64, ptr @rb_eIndexError, align 8, !tbaa !7
  %30 = load i64, ptr %10, align 8, !tbaa !7
  call void (i64, ptr, ...) @rb_raise(i64 noundef %29, ptr noundef @.str.2, i64 noundef %30) #33
  unreachable

31:                                               ; preds = %24
  %32 = load i64, ptr %10, align 8, !tbaa !7
  %33 = icmp slt i64 %32, 0
  br i1 %33, label %34, label %38

34:                                               ; preds = %31
  %35 = load i64, ptr %16, align 8, !tbaa !7
  %36 = load i64, ptr %10, align 8, !tbaa !7
  %37 = add i64 %36, %35
  store i64 %37, ptr %10, align 8, !tbaa !7
  br label %38

38:                                               ; preds = %34, %31
  %39 = load ptr, ptr %13, align 8, !tbaa !15
  %40 = icmp ne ptr %39, null
  br i1 %40, label %53, label %41

41:                                               ; preds = %38
  br label %42

42:                                               ; preds = %41
  %43 = load i64, ptr %10, align 8, !tbaa !7
  %44 = load i64, ptr %9, align 8, !tbaa !7
  %45 = inttoptr i64 %44 to ptr
  %46 = getelementptr inbounds nuw %struct.RString, ptr %45, i32 0, i32 1
  store i64 %43, ptr %46, align 8, !tbaa !11
  br label %47

47:                                               ; preds = %42
  br label %48

48:                                               ; preds = %47
  %49 = load i64, ptr %9, align 8, !tbaa !7
  %50 = load ptr, ptr %11, align 8, !tbaa !24
  %51 = load i64, ptr %12, align 8, !tbaa !7
  %52 = call i64 @rb_str_cat(i64 noundef %49, ptr noundef %50, i64 noundef %51)
  store i64 %52, ptr %8, align 8
  store i32 1, ptr %17, align 4
  br label %65

53:                                               ; preds = %38
  %54 = load i64, ptr %9, align 8, !tbaa !7
  call void @rb_str_modify(i64 noundef %54)
  %55 = load i64, ptr %9, align 8, !tbaa !7
  %56 = load i64, ptr %10, align 8, !tbaa !7
  %57 = load ptr, ptr %11, align 8, !tbaa !24
  %58 = load i64, ptr %12, align 8, !tbaa !7
  %59 = load ptr, ptr %13, align 8, !tbaa !15
  %60 = load i64, ptr %9, align 8, !tbaa !7
  %61 = call ptr @rb_enc_get(i64 noundef %60)
  %62 = load i32, ptr %14, align 4, !tbaa !22
  %63 = load i64, ptr %15, align 8, !tbaa !7
  %64 = call i64 @str_cat_conv_enc_opts(i64 noundef %55, i64 noundef %56, ptr noundef %57, i64 noundef %58, ptr noundef %59, ptr noundef %61, i32 noundef %62, i64 noundef %63)
  store i64 %64, ptr %8, align 8
  store i32 1, ptr %17, align 4
  br label %65

65:                                               ; preds = %53, %48
  call void @llvm.lifetime.end.p0(i64 8, ptr %16) #29
  %66 = load i64, ptr %8, align 8
  ret i64 %66
}