; Function Attrs: nounwind sspstrong uwtable
define hidden noundef i64 @rb_str_cat_conv_enc_opts(i64 noundef %0, i64 noundef %1, ptr noundef %2, i64 noundef %3, ptr noundef readonly captures(address_is_null) %4, i32 noundef %5, i64 noundef %6) local_unnamed_addr #1 {
  %8 = inttoptr i64 %0 to ptr
  %9 = getelementptr inbounds nuw i8, ptr %8, i64 16
  %10 = load i64, ptr %9, align 8, !tbaa !12
  %11 = sub i64 0, %10
  %12 = icmp slt i64 %1, %11
  %13 = icmp slt i64 %10, %1
  %or.cond = or i1 %12, %13
  br i1 %or.cond, label %14, label %16

14:                                               ; preds = %7
  %15 = load i64, ptr @rb_eIndexError, align 8, !tbaa !26
  tail call void (i64, ptr, ...) @rb_raise(i64 noundef %15, ptr noundef nonnull @.str.2, i64 noundef %1) #32
  unreachable

16:                                               ; preds = %7
  %17 = icmp slt i64 %1, 0
  %18 = select i1 %17, i64 %10, i64 0
  %spec.select = add i64 %18, %1
  %.not = icmp eq ptr %4, null
  br i1 %.not, label %19, label %27

19:                                               ; preds = %16
  store i64 %spec.select, ptr %9, align 8, !tbaa !12
  %20 = icmp eq i64 %3, 0
  br i1 %20, label %rb_str_cat.exit, label %21

21:                                               ; preds = %19
  %22 = icmp slt i64 %3, 0
  br i1 %22, label %23, label %25

23:                                               ; preds = %21
  %24 = load i64, ptr @rb_eArgError, align 8, !tbaa !26
  tail call void (i64, ptr, ...) @rb_raise(i64 noundef %24, ptr noundef nonnull @.str.18) #32
  unreachable

25:                                               ; preds = %21
  %26 = tail call fastcc i64 @str_buf_cat4(i64 noundef %0, ptr noundef %2, i64 noundef %3, i1 noundef zeroext false)
  br label %rb_str_cat.exit

27:                                               ; preds = %16
  tail call void @rb_str_modify(i64 noundef %0)
  %28 = tail call ptr @rb_enc_get(i64 noundef %0) #29
  %29 = tail call fastcc i64 @str_cat_conv_enc_opts(i64 noundef %0, i64 noundef %spec.select, ptr noundef %2, i64 noundef %3, ptr noundef nonnull %4, ptr noundef %28, i32 noundef %5, i64 noundef %6)
  br label %rb_str_cat.exit

rb_str_cat.exit:                                  ; preds = %25, %19, %27
  %.0 = phi i64 [ %29, %27 ], [ %26, %25 ], [ %0, %19 ]
  ret i64 %.0
}